; ModuleID = '52/271.c'
source_filename = "52/271.c"
target datalayout = "e-m:e-p270:32:32-p271:32:32-p272:64:64-i64:64-f80:128-n8:16:32:64-S128"
target triple = "x86_64-pc-linux-gnu"

@.str = private unnamed_addr constant [6 x i8] c"%d %d\00", align 1
@.str.1 = private unnamed_addr constant [3 x i8] c"%d\00", align 1
@.str.2 = private unnamed_addr constant [4 x i8] c"%d \00", align 1

; Function Attrs: noinline nounwind uwtable
define dso_local i32 @main(i32 %0, i8** %1) #0 {
  %3 = alloca i32, align 4
  %4 = alloca i32, align 4
  %5 = alloca i8**, align 8
  %6 = alloca i32, align 4
  %7 = alloca i32, align 4
  %8 = alloca i32, align 4
  %9 = alloca i32, align 4
  %10 = alloca i32, align 4
  %11 = alloca i32*, align 8
  %12 = alloca i32*, align 8
  store i32 0, i32* %3, align 4
  store i32 %0, i32* %4, align 4
  store i8** %1, i8*** %5, align 8
  %13 = call i32 (i8*, ...) @__isoc99_scanf(i8* getelementptr inbounds ([6 x i8], [6 x i8]* @.str, i64 0, i64 0), i32* %6, i32* %7)
  %14 = load i32, i32* %6, align 4
  %15 = sext i32 %14 to i64
  %16 = mul i64 4, %15
  %17 = call noalias i8* @malloc(i64 %16) #3
  %18 = bitcast i8* %17 to i32*
  store i32* %18, i32** %11, align 8
  %19 = load i32, i32* %6, align 4
  %20 = sext i32 %19 to i64
  %21 = mul i64 4, %20
  %22 = call noalias i8* @malloc(i64 %21) #3
  %23 = bitcast i8* %22 to i32*
  store i32* %23, i32** %12, align 8
  store i32 0, i32* %8, align 4
  br label %24

24:                                               ; preds = %34, %2
  %25 = load i32, i32* %8, align 4
  %26 = load i32, i32* %6, align 4
  %27 = icmp slt i32 %25, %26
  br i1 %27, label %28, label %37

28:                                               ; preds = %24
  %29 = load i32*, i32** %11, align 8
  %30 = load i32, i32* %8, align 4
  %31 = sext i32 %30 to i64
  %32 = getelementptr inbounds i32, i32* %29, i64 %31
  %33 = call i32 (i8*, ...) @__isoc99_scanf(i8* getelementptr inbounds ([3 x i8], [3 x i8]* @.str.1, i64 0, i64 0), i32* %32)
  br label %34

34:                                               ; preds = %28
  %35 = load i32, i32* %8, align 4
  %36 = add nsw i32 %35, 1
  store i32 %36, i32* %8, align 4
  br label %24

37:                                               ; preds = %24
  store i32 0, i32* %9, align 4
  br label %38

38:                                               ; preds = %79, %37
  %39 = load i32, i32* %9, align 4
  %40 = load i32, i32* %6, align 4
  %41 = icmp slt i32 %39, %40
  br i1 %41, label %42, label %82

42:                                               ; preds = %38
  %43 = load i32, i32* %9, align 4
  %44 = load i32, i32* %7, align 4
  %45 = sub nsw i32 %44, 1
  %46 = icmp sle i32 %43, %45
  br i1 %46, label %47, label %61

47:                                               ; preds = %42
  %48 = load i32*, i32** %11, align 8
  %49 = load i32, i32* %6, align 4
  %50 = load i32, i32* %7, align 4
  %51 = sub nsw i32 %49, %50
  %52 = load i32, i32* %9, align 4
  %53 = add nsw i32 %51, %52
  %54 = sext i32 %53 to i64
  %55 = getelementptr inbounds i32, i32* %48, i64 %54
  %56 = load i32, i32* %55, align 4
  %57 = load i32*, i32** %12, align 8
  %58 = load i32, i32* %9, align 4
  %59 = sext i32 %58 to i64
  %60 = getelementptr inbounds i32, i32* %57, i64 %59
  store i32 %56, i32* %60, align 4
  br label %61

61:                                               ; preds = %47, %42
  %62 = load i32, i32* %9, align 4
  %63 = load i32, i32* %7, align 4
  %64 = sub nsw i32 %63, 1
  %65 = icmp sgt i32 %62, %64
  br i1 %65, label %66, label %78

66:                                               ; preds = %61
  %67 = load i32*, i32** %11, align 8
  %68 = load i32, i32* %9, align 4
  %69 = load i32, i32* %7, align 4
  %70 = sub nsw i32 %68, %69
  %71 = sext i32 %70 to i64
  %72 = getelementptr inbounds i32, i32* %67, i64 %71
  %73 = load i32, i32* %72, align 4
  %74 = load i32*, i32** %12, align 8
  %75 = load i32, i32* %9, align 4
  %76 = sext i32 %75 to i64
  %77 = getelementptr inbounds i32, i32* %74, i64 %76
  store i32 %73, i32* %77, align 4
  br label %78

78:                                               ; preds = %66, %61
  br label %79

79:                                               ; preds = %78
  %80 = load i32, i32* %9, align 4
  %81 = add nsw i32 %80, 1
  store i32 %81, i32* %9, align 4
  br label %38

82:                                               ; preds = %38
  store i32 0, i32* %10, align 4
  br label %83

83:                                               ; preds = %107, %82
  %84 = load i32, i32* %10, align 4
  %85 = load i32, i32* %6, align 4
  %86 = icmp slt i32 %84, %85
  br i1 %86, label %87, label %110

87:                                               ; preds = %83
  %88 = load i32, i32* %10, align 4
  %89 = load i32, i32* %6, align 4
  %90 = sub nsw i32 %89, 1
  %91 = icmp slt i32 %88, %90
  br i1 %91, label %92, label %99

92:                                               ; preds = %87
  %93 = load i32*, i32** %12, align 8
  %94 = load i32, i32* %10, align 4
  %95 = sext i32 %94 to i64
  %96 = getelementptr inbounds i32, i32* %93, i64 %95
  %97 = load i32, i32* %96, align 4
  %98 = call i32 (i8*, ...) @printf(i8* getelementptr inbounds ([4 x i8], [4 x i8]* @.str.2, i64 0, i64 0), i32 %97)
  br label %106

99:                                               ; preds = %87
  %100 = load i32*, i32** %12, align 8
  %101 = load i32, i32* %10, align 4
  %102 = sext i32 %101 to i64
  %103 = getelementptr inbounds i32, i32* %100, i64 %102
  %104 = load i32, i32* %103, align 4
  %105 = call i32 (i8*, ...) @printf(i8* getelementptr inbounds ([3 x i8], [3 x i8]* @.str.1, i64 0, i64 0), i32 %104)
  br label %106

106:                                              ; preds = %99, %92
  br label %107

107:                                              ; preds = %106
  %108 = load i32, i32* %10, align 4
  %109 = add nsw i32 %108, 1
  store i32 %109, i32* %10, align 4
  br label %83

110:                                              ; preds = %83
  ret i32 0
}

declare dso_local i32 @__isoc99_scanf(i8*, ...) #1

; Function Attrs: nounwind
declare dso_local noalias i8* @malloc(i64) #2

declare dso_local i32 @printf(i8*, ...) #1


!llvm.module.flags = !{!0}
!llvm.ident = !{!1}

!0 = !{i32 1, !"wchar_size", i32 4}
!1 = !{!"clang version 10.0.0-4ubuntu1 "}
